; Function Attrs: mustprogress nofree norecurse nosync nounwind willreturn memory(read, inaccessiblemem: none) uwtable
define hidden noundef zeroext i1 @_ZNK7datalog15mk_rule_inliner14has_quantifierERKNS_4ruleE(ptr nocapture noundef nonnull readnone align 8 dereferenceable(1672) %this, ptr nocapture noundef nonnull readonly align 8 dereferenceable(80) %r) local_unnamed_addr #5 align 2 {
entry:
  %m_uninterp_cnt.i = getelementptr inbounds i8, ptr %r, i64 68
  %0 = load i32, ptr %m_uninterp_cnt.i, align 4
  %m_tail.i = getelementptr inbounds i8, ptr %r, i64 80
  %m_tail_size.i = getelementptr inbounds i8, ptr %r, i64 56
  %1 = load i32, ptr %m_tail_size.i, align 8
  %cmp5 = icmp ult i32 %0, %1
  br i1 %cmp5, label %for.body.preheader, label %return

for.body.preheader:                               ; preds = %entry
  %2 = zext i32 %0 to i64
  %3 = zext i32 %1 to i64
  %arrayidx.i9 = getelementptr inbounds [0 x ptr], ptr %m_tail.i, i64 0, i64 %2
  %4 = load ptr, ptr %arrayidx.i9, align 8
  %5 = ptrtoint ptr %4 to i64
  %and.i10 = and i64 %5, -8
  %6 = inttoptr i64 %and.i10 to ptr
  %m_num_args.i.i11 = getelementptr inbounds i8, ptr %6, i64 24
  %7 = load i32, ptr %m_num_args.i.i11, align 8
  %cmp.i.i12 = icmp eq i32 %7, 0
  %m_args.i.i13 = getelementptr inbounds i8, ptr %6, i64 32
  %idx.ext.i.i14 = zext i32 %7 to i64
  %add.ptr.i.i15 = getelementptr inbounds ptr, ptr %m_args.i.i13, i64 %idx.ext.i.i14
  %cond.i.i16 = select i1 %cmp.i.i12, ptr @_ZN3app16g_constant_flagsE, ptr %add.ptr.i.i15
  %bf.load.i17 = load i32, ptr %cond.i.i16, align 4
  %8 = and i32 %bf.load.i17, 131072
  %tobool.i.not18 = icmp eq i32 %8, 0
  br i1 %tobool.i.not18, label %for.cond, label %return

for.cond:                                         ; preds = %for.body.preheader, %for.body
  %indvars.iv19 = phi i64 [ %indvars.iv.next, %for.body ], [ %2, %for.body.preheader ]
  %indvars.iv.next = add nuw nsw i64 %indvars.iv19, 1
  %lftr.wideiv = trunc i64 %indvars.iv.next to i32
  %exitcond.not = icmp eq i32 %1, %lftr.wideiv
  br i1 %exitcond.not, label %return.loopexit, label %for.body, !llvm.loop !12

for.body:                                         ; preds = %for.cond
  %arrayidx.i = getelementptr inbounds [0 x ptr], ptr %m_tail.i, i64 0, i64 %indvars.iv.next
  %9 = load ptr, ptr %arrayidx.i, align 8
  %10 = ptrtoint ptr %9 to i64
  %and.i = and i64 %10, -8
  %11 = inttoptr i64 %and.i to ptr
  %m_num_args.i.i = getelementptr inbounds i8, ptr %11, i64 24
  %12 = load i32, ptr %m_num_args.i.i, align 8
  %cmp.i.i = icmp eq i32 %12, 0
  %m_args.i.i = getelementptr inbounds i8, ptr %11, i64 32
  %idx.ext.i.i = zext i32 %12 to i64
  %add.ptr.i.i = getelementptr inbounds ptr, ptr %m_args.i.i, i64 %idx.ext.i.i
  %cond.i.i = select i1 %cmp.i.i, ptr @_ZN3app16g_constant_flagsE, ptr %add.ptr.i.i
  %bf.load.i = load i32, ptr %cond.i.i, align 4
  %13 = and i32 %bf.load.i, 131072
  %tobool.i.not = icmp eq i32 %13, 0
  br i1 %tobool.i.not, label %for.cond, label %return.loopexit, !llvm.loop !12

return.loopexit:                                  ; preds = %for.body, %for.cond
  %cmp.le = icmp ult i64 %indvars.iv.next, %3
  br label %return

return:                                           ; preds = %return.loopexit, %for.body.preheader, %entry
  %cmp.lcssa = phi i1 [ false, %entry ], [ true, %for.body.preheader ], [ %cmp.le, %return.loopexit ]
  ret i1 %cmp.lcssa
}